; ModuleID = 'source-C-CXX/37/525.c'
source_filename = "source-C-CXX/37/525.c"
target datalayout = "e-m:e-p270:32:32-p271:32:32-p272:64:64-i64:64-f80:128-n8:16:32:64-S128"
target triple = "x86_64-pc-linux-gnu"

@.str = private unnamed_addr constant [3 x i8] c"%d\00", align 1
@.str.1 = private unnamed_addr constant [4 x i8] c"%lf\00", align 1
@.str.2 = private unnamed_addr constant [7 x i8] c"%.5lf\0A\00", align 1

; Function Attrs: nofree nounwind sspstrong uwtable
define dso_local i32 @main() local_unnamed_addr #0 {
  %1 = alloca i32, align 4
  %2 = alloca i32, align 4
  %3 = alloca double, align 8
  %4 = bitcast i32* %1 to i8*
  call void @llvm.lifetime.start.p0i8(i64 4, i8* nonnull %4) #4
  store i32 0, i32* %1, align 4, !tbaa !5
  %5 = call i32 (i8*, ...) @__isoc99_scanf(i8* getelementptr inbounds ([3 x i8], [3 x i8]* @.str, i64 0, i64 0), i32* nonnull %1)
  %6 = bitcast i32* %2 to i8*
  %7 = bitcast double* %3 to i8*
  %8 = load i32, i32* %1, align 4, !tbaa !5
  %9 = icmp sgt i32 %8, 0
  br i1 %9, label %10, label %45

10:                                               ; preds = %0, %27
  %11 = phi i32 [ %42, %27 ], [ 0, %0 ]
  call void @llvm.lifetime.start.p0i8(i64 4, i8* nonnull %6) #4
  store i32 0, i32* %2, align 4, !tbaa !5
  %12 = call i32 (i8*, ...) @__isoc99_scanf(i8* getelementptr inbounds ([3 x i8], [3 x i8]* @.str, i64 0, i64 0), i32* nonnull %2)
  %13 = load i32, i32* %2, align 4, !tbaa !5
  %14 = icmp sgt i32 %13, 0
  br i1 %14, label %15, label %27

15:                                               ; preds = %10, %15
  %16 = phi double [ %21, %15 ], [ 0.000000e+00, %10 ]
  %17 = phi i32 [ %24, %15 ], [ 0, %10 ]
  %18 = phi double [ %23, %15 ], [ 0.000000e+00, %10 ]
  call void @llvm.lifetime.start.p0i8(i64 8, i8* nonnull %7) #4
  store double 0.000000e+00, double* %3, align 8, !tbaa !9
  %19 = call i32 (i8*, ...) @__isoc99_scanf(i8* getelementptr inbounds ([4 x i8], [4 x i8]* @.str.1, i64 0, i64 0), double* nonnull %3)
  %20 = load double, double* %3, align 8, !tbaa !9
  %21 = fadd double %16, %20
  %22 = fmul double %20, %20
  %23 = fadd double %18, %22
  call void @llvm.lifetime.end.p0i8(i64 8, i8* nonnull %7) #4
  %24 = add nuw nsw i32 %17, 1
  %25 = load i32, i32* %2, align 4, !tbaa !5
  %26 = icmp slt i32 %24, %25
  br i1 %26, label %15, label %27, !llvm.loop !11

27:                                               ; preds = %15, %10
  %28 = phi double [ 0.000000e+00, %10 ], [ %23, %15 ]
  %29 = phi double [ 0.000000e+00, %10 ], [ %21, %15 ]
  %30 = phi i32 [ %13, %10 ], [ %25, %15 ]
  %31 = sitofp i32 %30 to double
  %32 = fdiv double %29, %31
  %33 = fmul double %32, 2.000000e+00
  %34 = fmul double %29, %33
  %35 = fsub double %28, %34
  %36 = fmul double %32, %31
  %37 = fmul double %32, %36
  %38 = fadd double %37, %35
  %39 = fdiv double %38, %31
  %40 = call double @sqrt(double %39) #4
  %41 = call i32 (i8*, ...) @printf(i8* nonnull dereferenceable(1) getelementptr inbounds ([7 x i8], [7 x i8]* @.str.2, i64 0, i64 0), double %40)
  call void @llvm.lifetime.end.p0i8(i64 4, i8* nonnull %6) #4
  %42 = add nuw nsw i32 %11, 1
  %43 = load i32, i32* %1, align 4, !tbaa !5
  %44 = icmp slt i32 %42, %43
  br i1 %44, label %10, label %45, !llvm.loop !13

45:                                               ; preds = %27, %0
  call void @llvm.lifetime.end.p0i8(i64 4, i8* nonnull %4) #4
  ret i32 0
}

; Function Attrs: argmemonly mustprogress nofree nosync nounwind willreturn
declare void @llvm.lifetime.start.p0i8(i64 immarg, i8* nocapture) #1

; Function Attrs: nofree nounwind
declare noundef i32 @__isoc99_scanf(i8* nocapture noundef readonly, ...) local_unnamed_addr #2

; Function Attrs: argmemonly mustprogress nofree nosync nounwind willreturn
declare void @llvm.lifetime.end.p0i8(i64 immarg, i8* nocapture) #1

; Function Attrs: mustprogress nofree nounwind willreturn
declare double @sqrt(double) local_unnamed_addr #3

; Function Attrs: nofree nounwind
declare noundef i32 @printf(i8* nocapture noundef readonly, ...) local_unnamed_addr #2


!llvm.module.flags = !{!0, !1, !2, !3}
!llvm.ident = !{!4}

!0 = !{i32 1, !"wchar_size", i32 4}
!1 = !{i32 7, !"PIC Level", i32 2}
!2 = !{i32 7, !"PIE Level", i32 2}
!3 = !{i32 7, !"uwtable", i32 1}
!4 = !{!"clang version 13.0.0"}
!5 = !{!6, !6, i64 0}
!6 = !{!"int", !7, i64 0}
!7 = !{!"omnipotent char", !8, i64 0}
!8 = !{!"Simple C/C++ TBAA"}
!9 = !{!10, !10, i64 0}
!10 = !{!"double", !7, i64 0}
!11 = distinct !{!11, !12}
!12 = !{!"llvm.loop.mustprogress"}
!13 = distinct !{!13, !12}
